target datalayout = "e-m:e-p270:32:32-p271:32:32-p272:64:64-i64:64-i128:128-f80:128-n8:16:32:64-S128"
target triple = "x86_64-pc-linux-gnu"

%"class.cv::UMat" = type { i32, i32, i32, i32, ptr, i32, ptr, i64, %"struct.cv::MatSize", %"struct.cv::MatStep" }
%"struct.cv::MatSize" = type { ptr }
%"struct.cv::MatStep" = type { ptr, [2 x i64] }
%"struct.cv::quality::QualitySSIM::_mat_data" = type { %"class.cv::UMat", %"class.cv::UMat", %"class.cv::UMat", %"class.cv::UMat", %"class.cv::UMat" }
%"class.cv::Scalar_" = type { %"class.cv::Vec" }
%"class.cv::Vec" = type { %"class.cv::Matx" }
%"class.cv::Matx" = type { [4 x double] }
%"struct.std::pair" = type { %"class.cv::Scalar_", %"class.cv::UMat" }

@_ZN2cv7quality11QualitySSIM9_mat_dataC1ERKNS_11_InputArrayE = unnamed_addr alias void (ptr, ptr), ptr @_ZN2cv7quality11QualitySSIM9_mat_dataC2ERKNS_11_InputArrayE

; Function Attrs: inlinehint mustprogress nounwind uwtable
define linkonce_odr hidden void @_ZN2cv4MatxIdLi4ELi1EEC2EPKd(ptr noundef nonnull align 8 dereferenceable(32) %0, ptr noundef %1) unnamed_addr #5 comdat align 2 {
  %3 = alloca ptr, align 8
  %4 = alloca ptr, align 8
  %5 = alloca i32, align 4
  store ptr %0, ptr %3, align 8, !tbaa !52
  store ptr %1, ptr %4, align 8, !tbaa !28
  %6 = load ptr, ptr %3, align 8
  call void @llvm.lifetime.start.p0(i64 4, ptr %5) #15
  store i32 0, ptr %5, align 4, !tbaa !14
  br label %7

7:                                                ; preds = %21, %2
  %8 = load i32, ptr %5, align 4, !tbaa !14
  %9 = icmp slt i32 %8, 4
  br i1 %9, label %11, label %10

10:                                               ; preds = %7
  call void @llvm.lifetime.end.p0(i64 4, ptr %5) #15
  br label %24

11:                                               ; preds = %7
  %12 = load ptr, ptr %4, align 8, !tbaa !28
  %13 = load i32, ptr %5, align 4, !tbaa !14
  %14 = sext i32 %13 to i64
  %15 = getelementptr inbounds double, ptr %12, i64 %14
  %16 = load double, ptr %15, align 8, !tbaa !22
  %17 = getelementptr inbounds nuw %"class.cv::Matx", ptr %6, i32 0, i32 0
  %18 = load i32, ptr %5, align 4, !tbaa !14
  %19 = sext i32 %18 to i64
  %20 = getelementptr inbounds [4 x double], ptr %17, i64 0, i64 %19
  store double %16, ptr %20, align 8, !tbaa !22
  br label %21

21:                                               ; preds = %11
  %22 = load i32, ptr %5, align 4, !tbaa !14
  %23 = add nsw i32 %22, 1
  store i32 %23, ptr %5, align 4, !tbaa !14
  br label %7, !llvm.loop !56

24:                                               ; preds = %10
  ret void
}

; Function Attrs: inlinehint mustprogress uwtable
define linkonce_odr hidden void @_ZN2cv3VecIdLi4EEC2ERKS1_(ptr noundef nonnull align 8 dereferenceable(32) %0, ptr noundef nonnull align 8 dereferenceable(32) %1) unnamed_addr #4 comdat align 2 {
  %3 = alloca ptr, align 8
  %4 = alloca ptr, align 8
  store ptr %0, ptr %3, align 8, !tbaa !50
  store ptr %1, ptr %4, align 8, !tbaa !50
  %5 = load ptr, ptr %3, align 8
  %6 = load ptr, ptr %4, align 8, !tbaa !50
  %7 = getelementptr inbounds nuw %"class.cv::Matx", ptr %6, i32 0, i32 0
  %8 = getelementptr inbounds [4 x double], ptr %7, i64 0, i64 0
  call void @_ZN2cv4MatxIdLi4ELi1EEC2EPKd(ptr noundef nonnull align 8 dereferenceable(32) %5, ptr noundef %8)
  ret void
}

; Function Attrs: inlinehint mustprogress uwtable
define linkonce_odr hidden void @_ZN2cv7Scalar_IdEC2ERKS1_(ptr noundef nonnull align 8 dereferenceable(32) %0, ptr noundef nonnull align 8 dereferenceable(32) %1) unnamed_addr #4 comdat align 2 {
  %3 = alloca ptr, align 8
  %4 = alloca ptr, align 8
  store ptr %0, ptr %3, align 8, !tbaa !24
  store ptr %1, ptr %4, align 8, !tbaa !24
  %5 = load ptr, ptr %3, align 8
  %6 = load ptr, ptr %4, align 8, !tbaa !24
  call void @_ZN2cv3VecIdLi4EEC2ERKS1_(ptr noundef nonnull align 8 dereferenceable(32) %5, ptr noundef nonnull align 8 dereferenceable(32) %6)
  ret void
}

; Function Attrs: inlinehint mustprogress nounwind uwtable
define linkonce_odr hidden void @_ZNSt4pairIN2cv7Scalar_IdEENS0_4UMatEED2Ev(ptr noundef nonnull align 8 dereferenceable(112) %0) unnamed_addr #5 comdat align 2 {
  %2 = alloca ptr, align 8
  store ptr %0, ptr %2, align 8, !tbaa !26
  %3 = load ptr, ptr %2, align 8
  %4 = getelementptr inbounds nuw %"struct.std::pair", ptr %3, i32 0, i32 1
  call void @_ZN2cv4UMatD1Ev(ptr noundef nonnull align 8 dereferenceable(80) %4) #15
  ret void
}

; Function Attrs: mustprogress uwtable
define void @_ZN2cv7quality11QualitySSIM7computeERKNS_11_InputArrayES4_RKNS_12_OutputArrayE(ptr dead_on_unwind noalias writable sret(%"class.cv::Scalar_") align 8 %0, ptr noundef nonnull align 8 dereferenceable(24) %1, ptr noundef nonnull align 8 dereferenceable(24) %2, ptr noundef nonnull align 8 dereferenceable(24) %3) #0 align 2 personality ptr @__gxx_personality_v0 {
  %5 = alloca ptr, align 8
  %6 = alloca ptr, align 8
  %7 = alloca ptr, align 8
  %8 = alloca ptr, align 8
  %9 = alloca %"struct.std::pair", align 8
  %10 = alloca %"struct.cv::quality::QualitySSIM::_mat_data", align 8
  %11 = alloca %"struct.cv::quality::QualitySSIM::_mat_data", align 8
  %12 = alloca ptr, align 8
  %13 = alloca i32, align 4
  store ptr %0, ptr %5, align 8
  store ptr %1, ptr %6, align 8, !tbaa !10
  store ptr %2, ptr %7, align 8, !tbaa !10
  store ptr %3, ptr %8, align 8, !tbaa !12
  call void @llvm.lifetime.start.p0(i64 112, ptr %9) #15
  call void @llvm.lifetime.start.p0(i64 400, ptr %10) #15
  %14 = load ptr, ptr %6, align 8, !tbaa !10
  call void @_ZN2cv7quality11QualitySSIM9_mat_dataC1ERKNS_11_InputArrayE(ptr noundef nonnull align 8 dereferenceable(400) %10, ptr noundef nonnull align 8 dereferenceable(24) %14)
  call void @llvm.lifetime.start.p0(i64 400, ptr %11) #15
  %15 = load ptr, ptr %7, align 8, !tbaa !10
  invoke void @_ZN2cv7quality11QualitySSIM9_mat_dataC1ERKNS_11_InputArrayE(ptr noundef nonnull align 8 dereferenceable(400) %11, ptr noundef nonnull align 8 dereferenceable(24) %15)
          to label %16 unwind label %25

16:                                               ; preds = %4
  invoke void @_ZN2cv7quality11QualitySSIM9_mat_data7computeERKS2_S4_(ptr dead_on_unwind writable sret(%"struct.std::pair") align 8 %9, ptr noundef nonnull align 8 dereferenceable(400) %10, ptr noundef nonnull align 8 dereferenceable(400) %11)
          to label %17 unwind label %29

17:                                               ; preds = %16
  call void @_ZN2cv7quality11QualitySSIM9_mat_dataD2Ev(ptr noundef nonnull align 8 dereferenceable(400) %11) #15
  call void @llvm.lifetime.end.p0(i64 400, ptr %11) #15
  call void @_ZN2cv7quality11QualitySSIM9_mat_dataD2Ev(ptr noundef nonnull align 8 dereferenceable(400) %10) #15
  call void @llvm.lifetime.end.p0(i64 400, ptr %10) #15
  %18 = load ptr, ptr %8, align 8, !tbaa !12
  %19 = invoke noundef zeroext i1 @_ZNK2cv12_OutputArray6neededEv(ptr noundef nonnull align 8 dereferenceable(24) %18)
          to label %20 unwind label %34

20:                                               ; preds = %17
  br i1 %19, label %21, label %38

21:                                               ; preds = %20
  %22 = load ptr, ptr %8, align 8, !tbaa !12
  %23 = getelementptr inbounds nuw %"struct.std::pair", ptr %9, i32 0, i32 1
  invoke void @_ZNK2cv12_OutputArray6assignERKNS_4UMatE(ptr noundef nonnull align 8 dereferenceable(24) %22, ptr noundef nonnull align 8 dereferenceable(80) %23)
          to label %24 unwind label %34

24:                                               ; preds = %21
  br label %38

25:                                               ; preds = %4
  %26 = landingpad { ptr, i32 }
          cleanup
  %27 = extractvalue { ptr, i32 } %26, 0
  store ptr %27, ptr %12, align 8
  %28 = extractvalue { ptr, i32 } %26, 1
  store i32 %28, ptr %13, align 4
  br label %33

29:                                               ; preds = %16
  %30 = landingpad { ptr, i32 }
          cleanup
  %31 = extractvalue { ptr, i32 } %30, 0
  store ptr %31, ptr %12, align 8
  %32 = extractvalue { ptr, i32 } %30, 1
  store i32 %32, ptr %13, align 4
  call void @_ZN2cv7quality11QualitySSIM9_mat_dataD2Ev(ptr noundef nonnull align 8 dereferenceable(400) %11) #15
  br label %33

33:                                               ; preds = %29, %25
  call void @llvm.lifetime.end.p0(i64 400, ptr %11) #15
  call void @_ZN2cv7quality11QualitySSIM9_mat_dataD2Ev(ptr noundef nonnull align 8 dereferenceable(400) %10) #15
  call void @llvm.lifetime.end.p0(i64 400, ptr %10) #15
  br label %41

34:                                               ; preds = %38, %21, %17
  %35 = landingpad { ptr, i32 }
          cleanup
  %36 = extractvalue { ptr, i32 } %35, 0
  store ptr %36, ptr %12, align 8
  %37 = extractvalue { ptr, i32 } %35, 1
  store i32 %37, ptr %13, align 4
  call void @_ZNSt4pairIN2cv7Scalar_IdEENS0_4UMatEED2Ev(ptr noundef nonnull align 8 dereferenceable(112) %9) #15
  br label %41

38:                                               ; preds = %24, %20
  %39 = getelementptr inbounds nuw %"struct.std::pair", ptr %9, i32 0, i32 0
  invoke void @_ZN2cv7Scalar_IdEC2ERKS1_(ptr noundef nonnull align 8 dereferenceable(32) %0, ptr noundef nonnull align 8 dereferenceable(32) %39)
          to label %40 unwind label %34

40:                                               ; preds = %38
  call void @_ZNSt4pairIN2cv7Scalar_IdEENS0_4UMatEED2Ev(ptr noundef nonnull align 8 dereferenceable(112) %9) #15
  call void @llvm.lifetime.end.p0(i64 112, ptr %9) #15
  ret void

41:                                               ; preds = %34, %33
  call void @llvm.lifetime.end.p0(i64 112, ptr %9) #15
  br label %42

42:                                               ; preds = %41
  %43 = load ptr, ptr %12, align 8
  %44 = load i32, ptr %13, align 4
  %45 = insertvalue { ptr, i32 } poison, ptr %43, 0
  %46 = insertvalue { ptr, i32 } %45, i32 %44, 1
  resume { ptr, i32 } %46
}