; Function Attrs: mustprogress uwtable
define void @_ZN2cv7quality11QualitySSIM7computeERKNS_11_InputArrayES4_RKNS_12_OutputArrayE(ptr dead_on_unwind noalias writable writeonly sret(%"class.cv::Scalar_") align 8 captures(none) %0, ptr noundef nonnull align 8 dereferenceable(24) %1, ptr noundef nonnull align 8 dereferenceable(24) %2, ptr noundef nonnull align 8 dereferenceable(24) %3) local_unnamed_addr #0 align 2 personality ptr @__gxx_personality_v0 {
  %5 = alloca %"struct.std::pair", align 8
  %6 = alloca %"struct.cv::quality::QualitySSIM::_mat_data", align 8
  %7 = alloca %"struct.cv::quality::QualitySSIM::_mat_data", align 8
  call void @llvm.lifetime.start.p0(i64 112, ptr nonnull %5) #17
  call void @llvm.lifetime.start.p0(i64 400, ptr nonnull %6) #17
  call void @_ZN2cv7quality11QualitySSIM9_mat_dataC1ERKNS_11_InputArrayE(ptr noundef nonnull align 8 dereferenceable(400) %6, ptr noundef nonnull align 8 dereferenceable(24) %1)
  call void @llvm.lifetime.start.p0(i64 400, ptr nonnull %7) #17
  invoke void @_ZN2cv7quality11QualitySSIM9_mat_dataC1ERKNS_11_InputArrayE(ptr noundef nonnull align 8 dereferenceable(400) %7, ptr noundef nonnull align 8 dereferenceable(24) %2)
          to label %8 unwind label %22

8:                                                ; preds = %4
  invoke void @_ZN2cv7quality11QualitySSIM9_mat_data7computeERKS2_S4_(ptr dead_on_unwind nonnull writable sret(%"struct.std::pair") align 8 %5, ptr noundef nonnull align 8 dereferenceable(400) %6, ptr noundef nonnull align 8 dereferenceable(400) %7)
          to label %9 unwind label %24

9:                                                ; preds = %8
  %10 = getelementptr inbounds nuw i8, ptr %7, i64 320
  call void @_ZN2cv4UMatD1Ev(ptr noundef nonnull align 8 dereferenceable(80) %10) #17
  %11 = getelementptr inbounds nuw i8, ptr %7, i64 240
  call void @_ZN2cv4UMatD1Ev(ptr noundef nonnull align 8 dereferenceable(80) %11) #17
  %12 = getelementptr inbounds nuw i8, ptr %7, i64 160
  call void @_ZN2cv4UMatD1Ev(ptr noundef nonnull align 8 dereferenceable(80) %12) #17
  %13 = getelementptr inbounds nuw i8, ptr %7, i64 80
  call void @_ZN2cv4UMatD1Ev(ptr noundef nonnull align 8 dereferenceable(80) %13) #17
  call void @_ZN2cv4UMatD1Ev(ptr noundef nonnull align 8 dereferenceable(400) %7) #17
  call void @llvm.lifetime.end.p0(i64 400, ptr nonnull %7) #17
  %14 = getelementptr inbounds nuw i8, ptr %6, i64 320
  call void @_ZN2cv4UMatD1Ev(ptr noundef nonnull align 8 dereferenceable(80) %14) #17
  %15 = getelementptr inbounds nuw i8, ptr %6, i64 240
  call void @_ZN2cv4UMatD1Ev(ptr noundef nonnull align 8 dereferenceable(80) %15) #17
  %16 = getelementptr inbounds nuw i8, ptr %6, i64 160
  call void @_ZN2cv4UMatD1Ev(ptr noundef nonnull align 8 dereferenceable(80) %16) #17
  %17 = getelementptr inbounds nuw i8, ptr %6, i64 80
  call void @_ZN2cv4UMatD1Ev(ptr noundef nonnull align 8 dereferenceable(80) %17) #17
  call void @_ZN2cv4UMatD1Ev(ptr noundef nonnull align 8 dereferenceable(400) %6) #17
  call void @llvm.lifetime.end.p0(i64 400, ptr nonnull %6) #17
  %18 = invoke noundef zeroext i1 @_ZNK2cv12_OutputArray6neededEv(ptr noundef nonnull align 8 dereferenceable(24) %3)
          to label %19 unwind label %27

19:                                               ; preds = %9
  br i1 %18, label %20, label %_ZN2cv7Scalar_IdEC2ERKS1_.exit

20:                                               ; preds = %19
  %21 = getelementptr inbounds nuw i8, ptr %5, i64 32
  invoke void @_ZNK2cv12_OutputArray6assignERKNS_4UMatE(ptr noundef nonnull align 8 dereferenceable(24) %3, ptr noundef nonnull align 8 dereferenceable(80) %21)
          to label %_ZN2cv7Scalar_IdEC2ERKS1_.exit unwind label %27

22:                                               ; preds = %4
  %23 = landingpad { ptr, i32 }
          cleanup
  br label %26

24:                                               ; preds = %8
  %25 = landingpad { ptr, i32 }
          cleanup
  call void @_ZN2cv7quality11QualitySSIM9_mat_dataD2Ev(ptr noundef nonnull align 8 dereferenceable(400) %7) #17
  br label %26

26:                                               ; preds = %24, %22
  %.pn = phi { ptr, i32 } [ %25, %24 ], [ %23, %22 ]
  call void @llvm.lifetime.end.p0(i64 400, ptr nonnull %7) #17
  call void @_ZN2cv7quality11QualitySSIM9_mat_dataD2Ev(ptr noundef nonnull align 8 dereferenceable(400) %6) #17
  call void @llvm.lifetime.end.p0(i64 400, ptr nonnull %6) #17
  br label %31

27:                                               ; preds = %20, %9
  %28 = landingpad { ptr, i32 }
          cleanup
  %29 = getelementptr inbounds nuw i8, ptr %5, i64 32
  call void @_ZN2cv4UMatD1Ev(ptr noundef nonnull align 8 dereferenceable(80) %29) #17
  br label %31

_ZN2cv7Scalar_IdEC2ERKS1_.exit:                   ; preds = %20, %19
  call void @llvm.memcpy.p0.p0.i64(ptr noundef nonnull align 8 dereferenceable(32) %0, ptr noundef nonnull align 8 dereferenceable(32) %5, i64 32, i1 false), !tbaa !45
  %30 = getelementptr inbounds nuw i8, ptr %5, i64 32
  call void @_ZN2cv4UMatD1Ev(ptr noundef nonnull align 8 dereferenceable(80) %30) #17
  call void @llvm.lifetime.end.p0(i64 112, ptr nonnull %5) #17
  ret void

31:                                               ; preds = %27, %26
  %.pn8 = phi { ptr, i32 } [ %28, %27 ], [ %.pn, %26 ]
  call void @llvm.lifetime.end.p0(i64 112, ptr nonnull %5) #17
  resume { ptr, i32 } %.pn8
}